target datalayout = "e-m:e-p270:32:32-p271:32:32-p272:64:64-i64:64-i128:128-f80:128-n8:16:32:64-S128"
target triple = "x86_64-pc-linux-gnu"

%"struct.pkpy::Dict" = type { ptr, i32, i32, i32, i32, i32, i32, ptr, ptr }
%"struct.pkpy::Dict::Item" = type { ptr, ptr }
%"struct.pkpy::Dict::ItemNode" = type { i32, i32 }
%class.anon.1 = type { i8 }
%"struct.pkpy::PyObject" = type { ptr, i8, i8, %"struct.pkpy::Type", ptr }
%"struct.pkpy::Type" = type { i16 }

; Function Attrs: mustprogress nounwind uwtable
define linkonce_odr noundef zeroext i1 @_ZNK4pkpy8PyObject13is_attr_validEv(ptr noundef nonnull align 8 dereferenceable(24) %0) #4 comdat align 2 {
  %2 = alloca ptr, align 8
  store ptr %0, ptr %2, align 8
  %3 = load ptr, ptr %2, align 8
  %4 = getelementptr inbounds %"struct.pkpy::PyObject", ptr %3, i32 0, i32 4
  %5 = load ptr, ptr %4, align 8
  %6 = icmp ne ptr %5, null
  ret i1 %6
}

; Function Attrs: mustprogress nounwind uwtable
define linkonce_odr noundef zeroext i1 @_ZN4pkpy9is_taggedEPNS_8PyObjectE(ptr noundef %0) #4 comdat {
  %2 = alloca ptr, align 8
  store ptr %0, ptr %2, align 8
  %3 = load ptr, ptr %2, align 8
  %4 = ptrtoint ptr %3 to i64
  %5 = and i64 %4, 3
  %6 = icmp ne i64 %5, 0
  ret i1 %6
}

; Function Attrs: mustprogress uwtable
define internal void @"_ZZNK4pkpy4Dict8_gc_markEvENK3$_0clEPNS_8PyObjectES3_"(ptr noundef nonnull align 1 dereferenceable(1) %0, ptr noundef %1, ptr noundef %2) #7 align 2 {
  %4 = alloca ptr, align 8
  %5 = alloca ptr, align 8
  %6 = alloca ptr, align 8
  store ptr %0, ptr %4, align 8
  store ptr %1, ptr %5, align 8
  store ptr %2, ptr %6, align 8
  %7 = load ptr, ptr %5, align 8
  %8 = call noundef zeroext i1 @_ZN4pkpy9is_taggedEPNS_8PyObjectE(ptr noundef %7) #3
  br i1 %8, label %28, label %9

9:                                                ; preds = %3
  %10 = load ptr, ptr %5, align 8
  %11 = getelementptr inbounds %"struct.pkpy::PyObject", ptr %10, i32 0, i32 2
  %12 = load i8, ptr %11, align 1
  %13 = trunc i8 %12 to i1
  br i1 %13, label %28, label %14

14:                                               ; preds = %9
  %15 = load ptr, ptr %5, align 8
  %16 = getelementptr inbounds %"struct.pkpy::PyObject", ptr %15, i32 0, i32 2
  store i8 1, ptr %16, align 1
  %17 = load ptr, ptr %5, align 8
  %18 = load ptr, ptr %17, align 8
  %19 = getelementptr inbounds ptr, ptr %18, i64 0
  %20 = load ptr, ptr %19, align 8
  call void %20(ptr noundef nonnull align 8 dereferenceable(24) %17)
  %21 = load ptr, ptr %5, align 8
  %22 = call noundef zeroext i1 @_ZNK4pkpy8PyObject13is_attr_validEv(ptr noundef nonnull align 8 dereferenceable(24) %21) #3
  br i1 %22, label %23, label %27

23:                                               ; preds = %14
  %24 = load ptr, ptr %5, align 8
  %25 = getelementptr inbounds %"struct.pkpy::PyObject", ptr %24, i32 0, i32 4
  %26 = load ptr, ptr %25, align 8
  call void @_ZN4pkpy17_gc_mark_namedictEPNS_12NameDictImplIPNS_8PyObjectEEE(ptr noundef %26)
  br label %27

27:                                               ; preds = %23, %14
  br label %28

28:                                               ; preds = %27, %9, %3
  %29 = load ptr, ptr %6, align 8
  %30 = call noundef zeroext i1 @_ZN4pkpy9is_taggedEPNS_8PyObjectE(ptr noundef %29) #3
  br i1 %30, label %50, label %31

31:                                               ; preds = %28
  %32 = load ptr, ptr %6, align 8
  %33 = getelementptr inbounds %"struct.pkpy::PyObject", ptr %32, i32 0, i32 2
  %34 = load i8, ptr %33, align 1
  %35 = trunc i8 %34 to i1
  br i1 %35, label %50, label %36

36:                                               ; preds = %31
  %37 = load ptr, ptr %6, align 8
  %38 = getelementptr inbounds %"struct.pkpy::PyObject", ptr %37, i32 0, i32 2
  store i8 1, ptr %38, align 1
  %39 = load ptr, ptr %6, align 8
  %40 = load ptr, ptr %39, align 8
  %41 = getelementptr inbounds ptr, ptr %40, i64 0
  %42 = load ptr, ptr %41, align 8
  call void %42(ptr noundef nonnull align 8 dereferenceable(24) %39)
  %43 = load ptr, ptr %6, align 8
  %44 = call noundef zeroext i1 @_ZNK4pkpy8PyObject13is_attr_validEv(ptr noundef nonnull align 8 dereferenceable(24) %43) #3
  br i1 %44, label %45, label %49

45:                                               ; preds = %36
  %46 = load ptr, ptr %6, align 8
  %47 = getelementptr inbounds %"struct.pkpy::PyObject", ptr %46, i32 0, i32 4
  %48 = load ptr, ptr %47, align 8
  call void @_ZN4pkpy17_gc_mark_namedictEPNS_12NameDictImplIPNS_8PyObjectEEE(ptr noundef %48)
  br label %49

49:                                               ; preds = %45, %36
  br label %50

50:                                               ; preds = %49, %31, %28
  ret void
}

; Function Attrs: mustprogress uwtable
define internal void @"_ZNK4pkpy4Dict5applyIZNKS0_8_gc_markEvE3$_0EEvT_"(ptr noundef nonnull align 8 dereferenceable(48) %0) #7 align 2 {
  %2 = alloca %class.anon.1, align 1
  %3 = alloca ptr, align 8
  %4 = alloca i32, align 4
  store ptr %0, ptr %3, align 8
  %5 = load ptr, ptr %3, align 8
  %6 = getelementptr inbounds %"struct.pkpy::Dict", ptr %5, i32 0, i32 5
  %7 = load i32, ptr %6, align 8
  store i32 %7, ptr %4, align 4
  br label %8

8:                                                ; preds = %11, %1
  %9 = load i32, ptr %4, align 4
  %10 = icmp ne i32 %9, -1
  br i1 %10, label %11, label %33

11:                                               ; preds = %8
  %12 = getelementptr inbounds %"struct.pkpy::Dict", ptr %5, i32 0, i32 7
  %13 = load ptr, ptr %12, align 8
  %14 = load i32, ptr %4, align 4
  %15 = sext i32 %14 to i64
  %16 = getelementptr inbounds %"struct.pkpy::Dict::Item", ptr %13, i64 %15
  %17 = getelementptr inbounds %"struct.pkpy::Dict::Item", ptr %16, i32 0, i32 0
  %18 = load ptr, ptr %17, align 8
  %19 = getelementptr inbounds %"struct.pkpy::Dict", ptr %5, i32 0, i32 7
  %20 = load ptr, ptr %19, align 8
  %21 = load i32, ptr %4, align 4
  %22 = sext i32 %21 to i64
  %23 = getelementptr inbounds %"struct.pkpy::Dict::Item", ptr %20, i64 %22
  %24 = getelementptr inbounds %"struct.pkpy::Dict::Item", ptr %23, i32 0, i32 1
  %25 = load ptr, ptr %24, align 8
  call void @"_ZZNK4pkpy4Dict8_gc_markEvENK3$_0clEPNS_8PyObjectES3_"(ptr noundef nonnull align 1 dereferenceable(1) %2, ptr noundef %18, ptr noundef %25)
  %26 = getelementptr inbounds %"struct.pkpy::Dict", ptr %5, i32 0, i32 8
  %27 = load ptr, ptr %26, align 8
  %28 = load i32, ptr %4, align 4
  %29 = sext i32 %28 to i64
  %30 = getelementptr inbounds %"struct.pkpy::Dict::ItemNode", ptr %27, i64 %29
  %31 = getelementptr inbounds %"struct.pkpy::Dict::ItemNode", ptr %30, i32 0, i32 1
  %32 = load i32, ptr %31, align 4
  store i32 %32, ptr %4, align 4
  br label %8, !llvm.loop !9

33:                                               ; preds = %8
  ret void
}

; Function Attrs: mustprogress uwtable
define void @_ZNK4pkpy4Dict8_gc_markEv(ptr noundef nonnull align 8 dereferenceable(48) %0) #7 align 2 {
  %2 = alloca ptr, align 8
  store ptr %0, ptr %2, align 8
  %3 = load ptr, ptr %2, align 8
  call void @"_ZNK4pkpy4Dict5applyIZNKS0_8_gc_markEvE3$_0EEvT_"(ptr noundef nonnull align 8 dereferenceable(48) %3)
  ret void
}