; Function Attrs: mustprogress uwtable
define void @_ZNK4pkpy4Dict8_gc_markEv(ptr nocapture noundef nonnull readonly align 8 dereferenceable(48) %0) local_unnamed_addr #7 align 2 {
  %2 = getelementptr inbounds i8, ptr %0, i64 24
  %.04.i = load i32, ptr %2, align 8
  %.not5.i = icmp eq i32 %.04.i, -1
  br i1 %.not5.i, label %"_ZNK4pkpy4Dict5applyIZNKS0_8_gc_markEvE3$_0EEvT_.exit", label %.lr.ph.i

.lr.ph.i:                                         ; preds = %1
  %3 = getelementptr inbounds i8, ptr %0, i64 32
  %4 = getelementptr inbounds i8, ptr %0, i64 40
  br label %5

5:                                                ; preds = %"_ZZNK4pkpy4Dict8_gc_markEvENK3$_0clEPNS_8PyObjectES3_.exit.i", %.lr.ph.i
  %.06.i = phi i32 [ %.04.i, %.lr.ph.i ], [ %.0.i, %"_ZZNK4pkpy4Dict8_gc_markEvENK3$_0clEPNS_8PyObjectES3_.exit.i" ]
  %6 = load ptr, ptr %3, align 8
  %7 = sext i32 %.06.i to i64
  %8 = getelementptr inbounds %"struct.pkpy::Dict::Item", ptr %6, i64 %7
  %9 = load ptr, ptr %8, align 8
  %10 = getelementptr inbounds i8, ptr %8, i64 8
  %11 = load ptr, ptr %10, align 8
  %12 = ptrtoint ptr %9 to i64
  %13 = and i64 %12, 3
  %.not.i.i = icmp eq i64 %13, 0
  br i1 %.not.i.i, label %14, label %24

14:                                               ; preds = %5
  %15 = getelementptr inbounds i8, ptr %9, i64 9
  %16 = load i8, ptr %15, align 1
  %17 = trunc i8 %16 to i1
  br i1 %17, label %24, label %18

18:                                               ; preds = %14
  store i8 1, ptr %15, align 1
  %19 = load ptr, ptr %9, align 8
  %20 = load ptr, ptr %19, align 8
  tail call void %20(ptr noundef nonnull align 8 dereferenceable(24) %9)
  %21 = getelementptr inbounds i8, ptr %9, i64 16
  %22 = load ptr, ptr %21, align 8
  %.not1.i.i = icmp eq ptr %22, null
  br i1 %.not1.i.i, label %24, label %23

23:                                               ; preds = %18
  tail call void @_ZN4pkpy17_gc_mark_namedictEPNS_12NameDictImplIPNS_8PyObjectEEE(ptr noundef nonnull %22)
  br label %24

24:                                               ; preds = %23, %18, %14, %5
  %25 = ptrtoint ptr %11 to i64
  %26 = and i64 %25, 3
  %.not2.i.i = icmp eq i64 %26, 0
  br i1 %.not2.i.i, label %27, label %"_ZZNK4pkpy4Dict8_gc_markEvENK3$_0clEPNS_8PyObjectES3_.exit.i"

27:                                               ; preds = %24
  %28 = getelementptr inbounds i8, ptr %11, i64 9
  %29 = load i8, ptr %28, align 1
  %30 = trunc i8 %29 to i1
  br i1 %30, label %"_ZZNK4pkpy4Dict8_gc_markEvENK3$_0clEPNS_8PyObjectES3_.exit.i", label %31

31:                                               ; preds = %27
  store i8 1, ptr %28, align 1
  %32 = load ptr, ptr %11, align 8
  %33 = load ptr, ptr %32, align 8
  tail call void %33(ptr noundef nonnull align 8 dereferenceable(24) %11)
  %34 = getelementptr inbounds i8, ptr %11, i64 16
  %35 = load ptr, ptr %34, align 8
  %.not3.i.i = icmp eq ptr %35, null
  br i1 %.not3.i.i, label %"_ZZNK4pkpy4Dict8_gc_markEvENK3$_0clEPNS_8PyObjectES3_.exit.i", label %36

36:                                               ; preds = %31
  tail call void @_ZN4pkpy17_gc_mark_namedictEPNS_12NameDictImplIPNS_8PyObjectEEE(ptr noundef nonnull %35)
  br label %"_ZZNK4pkpy4Dict8_gc_markEvENK3$_0clEPNS_8PyObjectES3_.exit.i"

"_ZZNK4pkpy4Dict8_gc_markEvENK3$_0clEPNS_8PyObjectES3_.exit.i": ; preds = %36, %31, %27, %24
  %37 = load ptr, ptr %4, align 8
  %38 = getelementptr inbounds %"struct.pkpy::Dict::ItemNode", ptr %37, i64 %7, i32 1
  %.0.i = load i32, ptr %38, align 4
  %.not.i = icmp eq i32 %.0.i, -1
  br i1 %.not.i, label %"_ZNK4pkpy4Dict5applyIZNKS0_8_gc_markEvE3$_0EEvT_.exit", label %5, !llvm.loop !11

"_ZNK4pkpy4Dict5applyIZNKS0_8_gc_markEvE3$_0EEvT_.exit": ; preds = %"_ZZNK4pkpy4Dict8_gc_markEvENK3$_0clEPNS_8PyObjectES3_.exit.i", %1
  ret void
}